(lp1
(S'romantic'
p2
S'comedy'
p3
tp4
a(S'feel'
p5
S'like'
p6
tp7
a(S'new'
p8
S'york'
p9
tp10
a(S'subject'
p11
S'matter'
tp12
a(S'running'
p13
S'time'
tp14
a(S'special'
p15
S'effects'
p16
tp17
a(S'love'
p18
S'story'
p19
tp20
a(S'soap'
p21
S'opera'
tp22
a(S"'ve"
p23
S'seen'
p24
tp25
a(S'good'
p26
S'time'
p27
tp28
a(S'90'
p29
S'minutes'
p30
tp31
a(S'big'
p32
S'screen'
tp33
a(S'feels'
S'like'
p34
tp35
a(S'plays'
p36
S'like'
p37
tp38
a(S'de'
p39
S'niro'
p40
tp41
a(S'sense'
p42
S'humor'
p43
tp44
a(S'first'
p45
S'film'
p46
tp47
a(S'look'
p48
S'like'
p49
tp50
a(S'action'
p51
S'sequences'
p52
tp53
a(S'two'
p54
S'hours'
tp55
a(S'young'
p56
S'woman'
p57
tp58
a(S'world'
p59
S'war'
p60
tp61
a(S'target'
p62
S'audience'
p63
tp64
a(S'high'
p65
S'school'
p66
tp67
a(S'even'
p68
S'though'
p69
tp70
a(S'one'
p71
S'best'
p72
tp73
a(S'motion'
p74
S'picture'
tp75
a(S'kind'
p76
S'movie'
tp77
a(S'ever'
p78
S'seen'
p79
tp80
a(S'years'
p81
S'ago'
tp82
a(S'romantic'
p83
S'comedies'
p84
tp85
a(g60
S'ii'
p86
tp87
a(S'bad'
S'movie'
tp88
a(S'character'
p89
S'study'
p90
tp91
a(S'adam'
p92
S'sandler'
p93
tp94
a(S'action'
p95
S'movie'
p96
tp97
a(S'ever'
p98
S'made'
tp99
a(S'much'
p100
S'better'
p101
tp102
a(S'never'
p103
S'quite'
p104
tp105
a(S'one'
p106
S'another'
p107
tp108
a(S'worth'
p109
S'seeing'
tp110
a(S'good'
p111
S'intentions'
p112
tp113
a(S'much'
p114
S'like'
p115
tp116
a(S"'d"
p117
S'expect'
p118
tp119
a(S'one'
p120
S'thing'
p121
tp122
a(S'guilty'
S'pleasure'
p123
tp124
a(S'want'
p125
S'see'
p126
tp127
a(S'film'
p128
S'never'
p129
tp130
a(S'action'
p131
S'film'
p132
tp133
a(S'war'
p134
S'movies'
p135
tp136
a(S'10'
p137
S'minutes'
p138
tp139
a(S'hong'
p140
S'kong'
p141
tp142
a(S'family'
p143
S'film'
p144
tp145
a(S'far'
p146
S'less'
p147
tp148
a(S'reign'
p149
S'fire'
p150
tp151
a(S'whole'
p152
S'lot'
p153
tp154
a(S'blair'
p155
S'witch'
p156
tp157
a(S'one'
p158
S'man'
p159
tp160
a(S'see'
p161
S'movie'
p162
tp163
a(S'title'
p164
S'character'
p165
tp166
a(S'three'
p167
S'hours'
tp168
a(S'--'
p169
S'even'
p170
tp171
a(S'would'
p172
S'make'
p173
tp174
a(S'full'
p175
S'monty'
p176
tp177
a(S'spy'
p178
S'kids'
p179
tp180
a(S'real'
p181
S'life'
tp182
a(S'long'
p183
S'time'
p184
tp185
a(S'impossible'
p186
S'care'
p187
tp188
a(S'movie'
p189
S'experience'
p190
tp191
a(S'antwone'
p192
S'fisher'
p193
tp194
a(S'point'
p195
S'view'
p196
tp197
a(S'ensemble'
p198
S'cast'
p199
tp200
a(S'one'
S'year'
p201
tp202
a(S'many'
p203
S'times'
tp204
a(S'monster'
p205
S'movie'
p206
tp207
a(S'james'
p208
S'bond'
p209
tp210
a(S'pretty'
p211
S'much'
p212
tp213
a(S'film'
p214
S'noir'
p215
tp216
a(S'best'
S'films'
p217
tp218
a(S'main'
p219
S'characters'
p220
tp221
a(S'horror'
S'movie'
p222
tp223
a(S'nothing'
p224
S'else'
p225
tp226
a(S'could'
p227
S'easily'
p228
tp229
a(S'young'
p230
S'men'
p231
tp232
a(S'big'
p233
S'fat'
p234
tp235
a(S'never'
p236
S'seen'
tp237
a(S'almost'
p238
S'every'
p239
tp240
a(S'much'
p241
S'fun'
tp242
a(S'plot'
p243
S'twists'
tp244
a(S'little'
p245
S'film'
tp246
a(S'black'
p247
S'comedy'
p248
tp249
a(S'fatal'
p250
S'attraction'
p251
tp252
a(S'good'
p253
S'movie'
p254
tp255
a(S'horror'
p256
S'film'
tp257
a(S'good'
p258
S'actors'
p259
tp260
a(S'tell'
p261
S'story'
p262
tp263
a(S'seem'
p264
S'like'
p265
tp266
a(S'blade'
p267
S'ii'
p268
tp269
a(S'psychological'
p270
S'thriller'
p271
tp272
a(S'well'
p273
S'worth'
p274
tp275
a(S'ca'
S'help'
p276
tp277
a(S'cautionary'
p278
S'tale'
p279
tp280
a(S'good'
p281
S'film'
p282
tp283
a(S'greek'
p284
S'wedding'
p285
tp286
a(S'make'
p287
S'movies'
p288
tp289
a(S'cell'
p290
S'phones'
tp291
a(S'way'
p292
S'--'
p293
tp294
a(S'well'
p295
S'enough'
p296
tp297
a(S'one'
p298
S'greatest'
p299
tp300
a(S'human'
p301
S'beings'
p302
tp303
a(S'20'
p304
g81
tp305
a(S'gives'
p306
S'us'
p307
tp308
a(S'blue'
S'crush'
p309
tp310
a(S'called'
p311
S'`'
tp312
a(S'let'
p313
S'alone'
p314
tp315
a(S'feature'
p316
S'film'
p317
tp318
a(S'every'
p319
S'day'
p320
tp321
a(S'social'
p322
S'commentary'
p323
tp324
a(S'character'
S'development'
p325
tp326
a(S'jackie'
p327
S'chan'
p328
tp329
a(S'beautiful'
p330
S'self-satisfied'
p331
tp332
a(S"'ve"
p333
S'got'
p334
tp335
a(S'--'
p336
S'--'
p337
tp338
a(S'enough'
p339
S'make'
p340
tp341
a(S'fat'
g284
tp342
a(S'like'
S'movie'
p343
tp344
a(S'feature'
p345
S'debut'
p346
tp347
a(S'human'
p348
S'nature'
tp349
a(S"'ve"
p350
g78
tp351
a(S'looks'
p352
S'like'
p353
tp354
a(S'gross-out'
p355
S'comedy'
tp356
a(S'queen'
p357
S'damned'
p358
tp359
a(S'woody'
p360
S'allen'
p361
tp362
a(S'feeling'
p363
S'like'
p364
tp365
a(S'human'
p366
S'spirit'
p367
tp368
a(S'great'
S'deal'
p369
tp370
a(S'every'
p371
S'bit'
p372
tp373
a(S'something'
p374
S'new'
p375
tp376
a(S'credits'
p377
S'roll'
tp378
a(S'edge'
p379
S'seat'
p380
tp381
a(S'works'
S'well'
p382
tp383
a(S'without'
p384
S'much'
p385
tp386
a(S'interesting'
p387
S'character'
p388
tp389
a(S'film'
p390
S'--'
p391
tp392
a(S'comes'
S'across'
p393
tp394
a(S'visual'
p395
S'style'
p396
tp397
a(S"'m"
S'sure'
p398
tp399
a(S'de'
p400
S'palma'
p401
tp402
a(S'star'
p403
S'wars'
p404
tp405
a(S'nearly'
p406
S'three'
tp407
a(S'road'
p408
S'movie'
p409
tp410
a(S'pretty'
S'good'
p411
tp412
a(S'crime'
p413
S'drama'
p414
tp415
a(S'movie'
p416
S'--'
p417
tp418
a(S'guy'
p419
S'ritchie'
tp420
a(S'rob'
p421
S'schneider'
p422
tp423
a(g364
S'film'
p424
tp425
a(S'everything'
p426
S'else'
p427
tp428
a(S'movies'
p429
S'like'
p430
tp431
a(S'comic'
p432
S'relief'
p433
tp434
a(S'`'
S'analyze'
p435
tp436
a(S'waste'
p437
S'time'
tp438
a(S'action'
p439
S'films'
p440
tp441
a(S'time'
S'machine'
p442
tp443
a(S'half'
p444
S'hour'
p445
tp446
a(S'film'
S'...'
p447
tp448
a(S'eddie'
p449
S'murphy'
p450
tp451
a(S"'re"
S'looking'
p452
tp453
a(S'true'
p454
S'story'
p455
tp456
a(S'hard'
S'imagine'
p457
tp458
a(S'sustain'
p459
S'interest'
p460
tp461
a(S'21st'
p462
S'century'
p463
tp464
a(S'80'
p465
S'minutes'
p466
tp467
a(S'films'
p468
S'like'
p469
tp470
a(S'source'
p471
S'material'
tp472
a(S'15'
p473
S'minutes'
p474
tp475
a(S'film'
p476
S'festival'
p477
tp478
a(S'sort'
S'thing'
p479
tp480
a(S'fun'
p481
S'watch'
tp482
a(S'movie'
p483
S'year'
p484
tp485
a(S'star'
p486
S'trek'
p487
tp488
a(S'teen'
p489
S'movie'
p490
tp491
a(S'murder'
p492
S'numbers'
p493
tp494
a(S'jerry'
p495
S'bruckheimer'
p496
tp497
a(S"'ve"
S'never'
p498
tp499
a(S'battle'
p500
S'scenes'
tp501
a(S'film'
p502
S'like'
p503
tp504
a(S'tom'
S'green'
p505
tp506
a(S'after-school'
p507
S'special'
p508
tp509
a(S'sandra'
p510
S'bullock'
p511
tp512
a(S'like'
p513
S'something'
p514
tp515
a(S'sum'
p516
S'fears'
tp517
a(S'kung'
S'pow'
p518
tp519
a(S'film'
S'industry'
p520
tp521
a(S'many'
p522
S'us'
p523
tp524
a(S'animal'
p525
S'house'
p526
tp527
a(S'steven'
S'soderbergh'
p528
tp529
a(S'austin'
S'powers'
p530
tp531
a(S'made'
p532
S'film'
p533
tp534
a(S'kind'
p535
S'film'
p536
tp537
a(S"'re"
S'going'
p538
tp539
a(S'trouble'
p540
g319
tp541
a(S'b'
S'movie'
p542
tp543
a(S'york'
S'city'
p544
tp545
a(S'britney'
p546
S'spears'
p547
tp548
a(S'much'
S'movie'
tp549
a(S'great'
p550
S'film'
tp551
a(S'sweet'
S'home'
p552
tp553
a(S'feel'
p554
S'good'
tp555
a(S'long'
p556
S'way'
tp557
a(S'making'
p558
S'movie'
tp559
a(S'nearly'
p560
S'impossible'
p561
tp562
a(S'every'
p563
S'frame'
p564
tp565
a(S'stealing'
S'harvard'
p566
tp567
a(g239
S'turn'
tp568
a(S'snow'
p569
S'dogs'
p570
tp571
a(S'--'
p572
S'like'
p573
tp574
a(S'jason'
p575
S'x'
tp576
a(S'entertainment'
p577
S'value'
p578
tp579
a(S'could'
p580
S'make'
p581
tp582
a(S'production'
p583
S'values'
p584
tp585
a(S'horror'
p586
S'movies'
tp587
a(S'american'
p588
S'beauty'
tp589
a(S'short'
p590
S'story'
tp591
a(S'--'
p592
S'far'
p593
tp594
a(S'bad'
p595
S'film'
tp596
a(S'oscar'
p597
S'nomination'
tp598
a(S'comic'
p599
S'book'
p600
tp601
a(S'little'
p602
S'else'
p603
tp604
a(S'seems'
g513
tp605
a(S'dark'
p606
S'comedy'
p607
tp608
a(S'space'
p609
S'station'
p610
tp611
a(S'steven'
p612
S'seagal'
p613
tp614
a(S'could'
p615
S'possibly'
p616
tp617
a(S'human'
p618
S'face'
p619
tp620
a(S'one'
S'movies'
p621
tp622
a(S'characters'
p623
S'film'
tp624
a(S'audience'
p625
S'members'
p626
tp627
a(S'comic'
p628
S'timing'
p629
tp630
a(S'minutes'
p631
S'long'
p632
tp633
a(S'tv'
p634
S'special'
p635
tp636
a(S'often'
p637
S'enough'
tp638
a(S'another'
p639
S'day'
p640
tp641
a(S'really'
S'good'
p642
tp643
a(S'make'
S'movie'
p644
tp645
a(S'american'
p646
S'pie'
p647
tp648
a(S'world'
p649
S'traveler'
p650
tp651
a(S'without'
p652
S'ever'
p653
tp654
a(S'love'
p655
S'triangle'
tp656
a(S'lion'
p657
S'king'
p658
tp659
a(S'like'
S'bad'
p660
tp661
a(S'oscar'
p662
S'winners'
p663
tp664
a(S'quentin'
p665
S'tarantino'
p666
tp667
a(S'none'
p668
S'ever'
p669
tp670
a(S'funny'
p671
S'moments'
p672
tp673
a(S'falls'
p674
S'short'
p675
tp676
a(S'car'
p677
S'chase'
p678
tp679
a(S'country'
S'bears'
p680
tp681
a(S'tv'
p682
S'series'
tp683
a(S'french'
p684
S'cinema'
tp685
a(S'last'
p686
S'time'
p687
tp688
a(S'never'
p689
S'really'
p690
tp691
a(S'saturday'
p692
S'night'
p693
tp694
a(S'whole'
p695
S'thing'
p696
tp697
a(S'many'
p698
S'ways'
p699
tp700
a(S'make'
p701
S'great'
p702
tp703
a(S'video'
p704
S'store'
tp705
a(S'time'
p706
S'money'
p707
tp708
a(S'pretty'
p709
S'woman'
p710
tp711
a(S'make'
S'film'
p712
tp713
a.