(lp1
(S'romantic'
p2
S'comedy'
p3
tp4
a(S'feel'
p5
S'like'
p6
tp7
a(S'new'
p8
S'york'
p9
tp10
a(S'subject'
p11
S'matter'
tp12
a(S'running'
p13
S'time'
tp14
a(S'special'
p15
S'effects'
p16
tp17
a(S'love'
p18
S'story'
p19
tp20
a(S'soap'
p21
S'opera'
tp22
a(S"'ve"
p23
S'seen'
p24
tp25
a(S'good'
p26
S'time'
p27
tp28
a(S'90'
p29
S'minutes'
p30
tp31
a(S'big'
p32
S'screen'
tp33
a(S'feels'
S'like'
p34
tp35
a(S'plays'
p36
S'like'
p37
tp38
a(S'de'
p39
S'niro'
p40
tp41
a(S'sense'
p42
S'humor'
p43
tp44
a(S'first'
p45
S'film'
p46
tp47
a(S'look'
p48
S'like'
p49
tp50
a(S'action'
p51
S'sequences'
p52
tp53
a(S'two'
p54
S'hours'
tp55
a(S'young'
p56
S'woman'
p57
tp58
a(S'world'
p59
S'war'
p60
tp61
a(S'target'
p62
S'audience'
p63
tp64
a(S'high'
p65
S'school'
p66
tp67
a(S'even'
p68
S'though'
p69
tp70
a(S'one'
p71
S'best'
p72
tp73
a(S'motion'
p74
S'picture'
tp75
a(S'kind'
p76
S'movie'
tp77
a(S'ever'
p78
S'seen'
p79
tp80
a(S'years'
p81
S'ago'
tp82
a(S'romantic'
p83
S'comedies'
p84
tp85
a(g60
S'ii'
p86
tp87
a(S'bad'
S'movie'
tp88
a(S'character'
p89
S'study'
p90
tp91
a(S'adam'
p92
S'sandler'
p93
tp94
a(S'action'
p95
S'movie'
p96
tp97
a(S'ever'
p98
S'made'
tp99
a(S'much'
p100
S'better'
p101
tp102
a(S'never'
p103
S'quite'
p104
tp105
a(S'one'
p106
S'another'
p107
tp108
a(S'worth'
p109
S'seeing'
tp110
a(S'good'
p111
S'intentions'
p112
tp113
a(S'much'
p114
S'like'
p115
tp116
a(S"'d"
p117
S'expect'
p118
tp119
a(S'one'
p120
S'thing'
p121
tp122
a(S'guilty'
S'pleasure'
p123
tp124
a(S'want'
p125
S'see'
p126
tp127
a(S'film'
p128
S'never'
p129
tp130
a(S'action'
p131
S'film'
p132
tp133
a(S'war'
p134
S'movies'
p135
tp136
a(S'10'
p137
S'minutes'
p138
tp139
a(S'hong'
p140
S'kong'
p141
tp142
a(S'family'
p143
S'film'
p144
tp145
a(S'far'
p146
S'less'
p147
tp148
a(S'reign'
p149
S'fire'
p150
tp151
a(S'whole'
p152
S'lot'
p153
tp154
a(S'blair'
p155
S'witch'
p156
tp157
a(S'one'
p158
S'man'
p159
tp160
a(S'see'
p161
S'movie'
p162
tp163
a(S'title'
p164
S'character'
p165
tp166
a(S'three'
p167
S'hours'
tp168
a(S'--'
p169
S'even'
p170
tp171
a(S'would'
p172
S'make'
p173
tp174
a(S'full'
p175
S'monty'
p176
tp177
a(S'spy'
p178
S'kids'
p179
tp180
a(S'real'
p181
S'life'
tp182
a(S'long'
p183
S'time'
p184
tp185
a(S'impossible'
p186
S'care'
p187
tp188
a(S'movie'
p189
S'experience'
p190
tp191
a(S'antwone'
p192
S'fisher'
p193
tp194
a(S'point'
p195
S'view'
p196
tp197
a(S'ensemble'
p198
S'cast'
p199
tp200
a(S'one'
S'year'
p201
tp202
a(S'many'
p203
S'times'
tp204
a(S'monster'
p205
S'movie'
p206
tp207
a(S'james'
p208
S'bond'
p209
tp210
a(S'pretty'
p211
S'much'
p212
tp213
a(S'film'
p214
S'noir'
p215
tp216
a(S'best'
S'films'
p217
tp218
a(S'main'
p219
S'characters'
p220
tp221
a.